target datalayout = "e-m:e-p270:32:32-p271:32:32-p272:64:64-i64:64-i128:128-f80:128-n8:16:32:64-S128"
target triple = "x86_64-pc-linux-gnu"

; Function Attrs: nounwind uwtable
define i32 @ASN1_TYPE_set_octetstring(ptr noundef %0, ptr noundef %1, i32 noundef %2) #0 {
  %4 = alloca i32, align 4
  %5 = alloca ptr, align 8
  %6 = alloca ptr, align 8
  %7 = alloca i32, align 4
  %8 = alloca ptr, align 8
  %9 = alloca i32, align 4
  store ptr %0, ptr %5, align 8, !tbaa !3
  store ptr %1, ptr %6, align 8, !tbaa !8
  store i32 %2, ptr %7, align 4, !tbaa !10
  call void @llvm.lifetime.start.p0(i64 8, ptr %8) #5
  %10 = call ptr @ASN1_OCTET_STRING_new()
  store ptr %10, ptr %8, align 8, !tbaa !12
  %11 = icmp eq ptr %10, null
  br i1 %11, label %12, label %13

12:                                               ; preds = %3
  store i32 0, ptr %4, align 4
  store i32 1, ptr %9, align 4
  br label %24

13:                                               ; preds = %3
  %14 = load ptr, ptr %8, align 8, !tbaa !12
  %15 = load ptr, ptr %6, align 8, !tbaa !8
  %16 = load i32, ptr %7, align 4, !tbaa !10
  %17 = call i32 @ASN1_OCTET_STRING_set(ptr noundef %14, ptr noundef %15, i32 noundef %16)
  %18 = icmp ne i32 %17, 0
  br i1 %18, label %21, label %19

19:                                               ; preds = %13
  %20 = load ptr, ptr %8, align 8, !tbaa !12
  call void @ASN1_OCTET_STRING_free(ptr noundef %20)
  store i32 0, ptr %4, align 4
  store i32 1, ptr %9, align 4
  br label %24

21:                                               ; preds = %13
  %22 = load ptr, ptr %5, align 8, !tbaa !3
  %23 = load ptr, ptr %8, align 8, !tbaa !12
  call void @ASN1_TYPE_set(ptr noundef %22, i32 noundef 4, ptr noundef %23)
  store i32 1, ptr %4, align 4
  store i32 1, ptr %9, align 4
  br label %24

24:                                               ; preds = %21, %19, %12
  call void @llvm.lifetime.end.p0(i64 8, ptr %8) #5
  %25 = load i32, ptr %4, align 4
  ret i32 %25
}