; Function Attrs: nounwind uwtable
define range(i32 0, 2) i32 @ASN1_TYPE_set_octetstring(ptr noundef %0, ptr noundef %1, i32 noundef %2) local_unnamed_addr #0 {
  %4 = tail call ptr @ASN1_OCTET_STRING_new() #5
  %5 = icmp eq ptr %4, null
  br i1 %5, label %10, label %6

6:                                                ; preds = %3
  %7 = tail call i32 @ASN1_OCTET_STRING_set(ptr noundef nonnull %4, ptr noundef %1, i32 noundef %2) #5
  %.not = icmp eq i32 %7, 0
  br i1 %.not, label %8, label %9

8:                                                ; preds = %6
  tail call void @ASN1_OCTET_STRING_free(ptr noundef nonnull %4) #5
  br label %10

9:                                                ; preds = %6
  tail call void @ASN1_TYPE_set(ptr noundef %0, i32 noundef 4, ptr noundef nonnull %4) #5
  br label %10

10:                                               ; preds = %3, %9, %8
  %.0 = phi i32 [ 1, %9 ], [ 0, %8 ], [ 0, %3 ]
  ret i32 %.0
}